; Function Attrs: mustprogress uwtable
define hidden noalias noundef ptr @_Z15mk_trace_tacticPKc(ptr noundef %tag) local_unnamed_addr #3 {
entry:
  %call = tail call noalias noundef ptr @_ZN6memory8allocateEm(i64 noundef 24)
  %m_ref_count.i.i.i = getelementptr inbounds i8, ptr %call, i64 8
  store i32 0, ptr %m_ref_count.i.i.i, align 8
  store ptr getelementptr inbounds ({ [25 x ptr] }, ptr @_ZTV12trace_tactic, i64 0, i32 0, i64 2), ptr %call, align 8
  %m_tag.i = getelementptr inbounds i8, ptr %call, i64 16
  store ptr %tag, ptr %m_tag.i, align 8
  ret ptr %call
}